; Function Attrs: nounwind uwtable
define internal fastcc noundef ptr @_readInferClause() unnamed_addr #0 {
  %1 = alloca i32, align 4
  %2 = tail call noundef ptr @palloc0(i64 noundef 40) #10
  store i32 111, ptr %2, align 4
  call void @llvm.lifetime.start.p0(i64 4, ptr nonnull %1) #10
  %3 = call ptr @pg_strtok(ptr noundef nonnull %1) #10
  %4 = call ptr @nodeRead(ptr noundef null, i32 noundef 0) #10
  %5 = getelementptr inbounds nuw i8, ptr %2, i64 8
  store ptr %4, ptr %5, align 8
  %6 = call ptr @pg_strtok(ptr noundef nonnull %1) #10
  %7 = call ptr @nodeRead(ptr noundef null, i32 noundef 0) #10
  %8 = getelementptr inbounds nuw i8, ptr %2, i64 16
  store ptr %7, ptr %8, align 8
  %9 = call ptr @pg_strtok(ptr noundef nonnull %1) #10
  %10 = call ptr @pg_strtok(ptr noundef nonnull %1) #10
  %11 = load i32, ptr %1, align 4
  switch i32 %11, label %21 [
    i32 0, label %nullable_string.exit
    i32 2, label %12
  ]

12:                                               ; preds = %0
  %13 = load i8, ptr %10, align 1
  %14 = icmp eq i8 %13, 34
  br i1 %14, label %15, label %21

15:                                               ; preds = %12
  %16 = getelementptr inbounds nuw i8, ptr %10, i64 1
  %17 = load i8, ptr %16, align 1
  %18 = icmp eq i8 %17, 34
  br i1 %18, label %19, label %21

19:                                               ; preds = %15
  %20 = call ptr @pstrdup(ptr noundef nonnull @.str.326) #10
  br label %nullable_string.exit

21:                                               ; preds = %15, %12, %0
  %22 = call ptr @debackslash(ptr noundef %10, i32 noundef %11) #10
  br label %nullable_string.exit

nullable_string.exit:                             ; preds = %0, %19, %21
  %.0.i = phi ptr [ %20, %19 ], [ %22, %21 ], [ null, %0 ]
  %23 = getelementptr inbounds nuw i8, ptr %2, i64 24
  store ptr %.0.i, ptr %23, align 8
  %24 = call ptr @pg_strtok(ptr noundef nonnull %1) #10
  %25 = call ptr @pg_strtok(ptr noundef nonnull %1) #10
  %26 = getelementptr inbounds nuw i8, ptr %2, i64 32
  store i32 -1, ptr %26, align 8
  call void @llvm.lifetime.end.p0(i64 4, ptr nonnull %1) #10
  ret ptr %2
}